; Function Attrs: mustprogress uwtable
define void @_ZN2cv5writeERNS_11FileStorageERKNSt7__cxx1112basic_stringIcSt11char_traitsIcESaIcEEERKSt6vectorINS_8KeyPointESaISB_EE(ptr noundef nonnull align 8 dereferenceable(64) %0, ptr noundef nonnull align 8 dereferenceable(32) %1, ptr noundef nonnull align 8 dereferenceable(24) %2) local_unnamed_addr #0 personality ptr @__gxx_personality_v0 {
  %4 = alloca %"class.cv::internal::VecWriterProxy", align 8
  %5 = alloca %"class.cv::internal::WriteStructContext", align 8
  %6 = alloca %"class.std::__cxx11::basic_string", align 8
  call void @_ZNSt7__cxx1112basic_stringIcSt11char_traitsIcESaIcEEC1Ev(ptr noundef nonnull align 8 dereferenceable(32) %6) #12
  invoke void @_ZN2cv8internal18WriteStructContextC1ERNS_11FileStorageERKNSt7__cxx1112basic_stringIcSt11char_traitsIcESaIcEEEiSB_(ptr noundef nonnull align 8 dereferenceable(8) %5, ptr noundef nonnull align 8 dereferenceable(64) %0, ptr noundef nonnull align 8 dereferenceable(32) %1, i32 noundef 4, ptr noundef nonnull align 8 dereferenceable(32) %6)
          to label %7 unwind label %9

7:                                                ; preds = %3
  call void @_ZNSt7__cxx1112basic_stringIcSt11char_traitsIcESaIcEED1Ev(ptr noundef nonnull align 8 dereferenceable(32) %6) #12
  call void @llvm.lifetime.start.p0(i64 8, ptr nonnull %4)
  store ptr %0, ptr %4, align 8
  invoke void @_ZNK2cv8internal14VecWriterProxyINS_8KeyPointELi0EEclERKSt6vectorIS2_SaIS2_EE(ptr noundef nonnull align 8 dereferenceable(8) %4, ptr noundef nonnull align 8 dereferenceable(24) %2)
          to label %8 unwind label %11

8:                                                ; preds = %7
  call void @llvm.lifetime.end.p0(i64 8, ptr nonnull %4)
  call void @_ZN2cv8internal18WriteStructContextD1Ev(ptr noundef nonnull align 8 dereferenceable(8) %5) #12
  ret void

9:                                                ; preds = %3
  %10 = landingpad { ptr, i32 }
          cleanup
  call void @_ZNSt7__cxx1112basic_stringIcSt11char_traitsIcESaIcEED1Ev(ptr noundef nonnull align 8 dereferenceable(32) %6) #12
  br label %13

11:                                               ; preds = %7
  %12 = landingpad { ptr, i32 }
          cleanup
  call void @_ZN2cv8internal18WriteStructContextD1Ev(ptr noundef nonnull align 8 dereferenceable(8) %5) #12
  br label %13

13:                                               ; preds = %11, %9
  %.pn = phi { ptr, i32 } [ %12, %11 ], [ %10, %9 ]
  resume { ptr, i32 } %.pn
}